; Function Attrs: mustprogress uwtable
define void @_ZN22LteRlcStatisticsDialog8tapResetEPv(ptr noundef %0) #2 align 2 {
  %.not = icmp eq ptr %0, null
  br i1 %.not, label %5, label %2

2:                                                ; preds = %1
  %3 = tail call noundef ptr @_ZN18TapParameterDialog15statsTreeWidgetEv(ptr noundef nonnull align 8 dereferenceable(224) %0)
  tail call void @_ZN11QTreeWidget5clearEv(ptr noundef nonnull align 8 dereferenceable(40) %3)
  %4 = getelementptr inbounds i8, ptr %0, i64 296
  store i32 0, ptr %4, align 8
  br label %5

5:                                                ; preds = %1, %2
  ret void
}